(lp0
S'poi'
p1
aS'salary'
p2
aS'bonus'
p3
aS'total_stock_value'
p4
aS'expenses'
p5
aS'other'
p6
aS'restricted_stock'
p7
aS'to_messages'
p8
aS'from_messages'
p9
aS'from_this_person_to_poi'
p10
aS'shared_receipt_with_poi'
p11
aS'to_poi_fraction'
p12
aS'restr_to_total'
p13
a.